target datalayout = "e-m:e-p270:32:32-p271:32:32-p272:64:64-i64:64-i128:128-f80:128-n8:16:32:64-S128"
target triple = "x86_64-pc-linux-gnu"

%"class.google::protobuf::internal::InternalMetadata" = type { i64 }
%"class.google::protobuf::internal::ExtensionSet" = type { ptr, i16, i16, %"union.google::protobuf::internal::ExtensionSet::AllocatedData" }
%"union.google::protobuf::internal::ExtensionSet::AllocatedData" = type { ptr }
%"class.google::protobuf::Message" = type { %"class.google::protobuf::MessageLite" }
%"class.google::protobuf::MessageLite" = type { ptr, %"class.google::protobuf::internal::InternalMetadata" }
%"class.google::protobuf::internal::RepeatedPtrFieldBase" = type { ptr, i32, i32, ptr }
%"class.google::protobuf::internal::CachedSize" = type { %"struct.std::atomic" }
%"struct.std::atomic" = type { %"struct.std::__atomic_base" }
%"struct.std::__atomic_base" = type { i32 }
%"class.google::protobuf::RepeatedPtrField.12" = type { %"class.google::protobuf::internal::RepeatedPtrFieldBase" }
%"class.google::protobuf::internal::RepeatedPtrIterator.52" = type { ptr }
%"class.google::protobuf::internal::RepeatedPtrIterator.92" = type { ptr }
%"class.google::protobuf::OneofOptions" = type <{ %"class.google::protobuf::Message", %"class.google::protobuf::internal::ExtensionSet", %"class.google::protobuf::RepeatedPtrField.12", %"class.google::protobuf::internal::CachedSize", [4 x i8] }>
%"struct.google::protobuf::internal::RepeatedPtrFieldBase::Rep" = type { i32, [268435454 x ptr] }

; Function Attrs: mustprogress nounwind uwtable
define linkonce_odr hidden noundef i32 @_ZN6google8protobuf4Bits16Log2FloorNonZeroEj(i32 noundef %0) #5 comdat align 2 {
  %2 = alloca i32, align 4
  store i32 %0, ptr %2, align 4, !tbaa !8
  %3 = load i32, ptr %2, align 4, !tbaa !8
  %4 = call i32 @llvm.ctlz.i32(i32 %3, i1 true)
  %5 = xor i32 31, %4
  ret i32 %5
}

; Function Attrs: inlinehint mustprogress uwtable
define linkonce_odr hidden noundef i64 @_ZN6google8protobuf2io17CodedOutputStream12VarintSize32Ej(i32 noundef %0) #6 comdat align 2 {
  %2 = alloca i32, align 4
  %3 = alloca i32, align 4
  store i32 %0, ptr %2, align 4, !tbaa !8
  call void @llvm.lifetime.start.p0(i64 4, ptr %3) #3
  %4 = load i32, ptr %2, align 4, !tbaa !8
  %5 = or i32 %4, 1
  %6 = call noundef i32 @_ZN6google8protobuf4Bits16Log2FloorNonZeroEj(i32 noundef %5)
  store i32 %6, ptr %3, align 4, !tbaa !8
  %7 = load i32, ptr %3, align 4, !tbaa !8
  %8 = mul i32 %7, 9
  %9 = add i32 %8, 73
  %10 = udiv i32 %9, 64
  %11 = zext i32 %10 to i64
  call void @llvm.lifetime.end.p0(i64 4, ptr %3) #3
  ret i64 %11
}

; Function Attrs: inlinehint mustprogress nounwind uwtable
define linkonce_odr hidden noundef i32 @_ZNK6google8protobuf8internal20RepeatedPtrFieldBase4sizeEv(ptr noundef nonnull align 8 dereferenceable(24) %0) #7 comdat align 2 {
  %2 = alloca ptr, align 8
  store ptr %0, ptr %2, align 8, !tbaa !561
  %3 = load ptr, ptr %2, align 8
  %4 = getelementptr inbounds nuw %"class.google::protobuf::internal::RepeatedPtrFieldBase", ptr %3, i32 0, i32 1
  %5 = load i32, ptr %4, align 8, !tbaa !564
  ret i32 %5
}

; Function Attrs: inlinehint mustprogress uwtable
define linkonce_odr hidden noundef i64 @_ZN6google8protobuf8internal14WireFormatLite19LengthDelimitedSizeEm(i64 noundef %0) #6 comdat align 2 {
  %2 = alloca i64, align 8
  store i64 %0, ptr %2, align 8, !tbaa !68
  %3 = load i64, ptr %2, align 8, !tbaa !68
  %4 = load i64, ptr %2, align 8, !tbaa !68
  %5 = trunc i64 %4 to i32
  %6 = call noundef i64 @_ZN6google8protobuf2io17CodedOutputStream12VarintSize32Ej(i32 noundef %5)
  %7 = add i64 %3, %6
  ret i64 %7
}

; Function Attrs: mustprogress nounwind uwtable
define linkonce_odr hidden void @_ZN6google8protobuf8internal19RepeatedPtrIteratorIKNS0_19UninterpretedOptionEEC2IS3_EERKNS2_IT_EE(ptr noundef nonnull align 8 dereferenceable(8) %0, ptr noundef nonnull align 8 dereferenceable(8) %1) unnamed_addr #5 comdat align 2 {
  %3 = alloca ptr, align 8
  %4 = alloca ptr, align 8
  store ptr %0, ptr %3, align 8, !tbaa !289
  store ptr %1, ptr %4, align 8, !tbaa !821
  %5 = load ptr, ptr %3, align 8
  %6 = getelementptr inbounds nuw %"class.google::protobuf::internal::RepeatedPtrIterator.52", ptr %5, i32 0, i32 0
  %7 = load ptr, ptr %4, align 8, !tbaa !821
  %8 = getelementptr inbounds nuw %"class.google::protobuf::internal::RepeatedPtrIterator.92", ptr %7, i32 0, i32 0
  %9 = load ptr, ptr %8, align 8, !tbaa !823
  store ptr %9, ptr %6, align 8, !tbaa !291
  ret void
}

; Function Attrs: mustprogress nounwind uwtable
define linkonce_odr hidden void @_ZN6google8protobuf8internal19RepeatedPtrIteratorINS0_19UninterpretedOptionEEC2EPKPv(ptr noundef nonnull align 8 dereferenceable(8) %0, ptr noundef %1) unnamed_addr #5 comdat align 2 {
  %3 = alloca ptr, align 8
  %4 = alloca ptr, align 8
  store ptr %0, ptr %3, align 8, !tbaa !821
  store ptr %1, ptr %4, align 8, !tbaa !664
  %5 = load ptr, ptr %3, align 8
  %6 = getelementptr inbounds nuw %"class.google::protobuf::internal::RepeatedPtrIterator.92", ptr %5, i32 0, i32 0
  %7 = load ptr, ptr %4, align 8, !tbaa !664
  store ptr %7, ptr %6, align 8, !tbaa !823
  ret void
}

; Function Attrs: inlinehint mustprogress nounwind uwtable
define linkonce_odr hidden noundef ptr @_ZNK6google8protobuf8internal20RepeatedPtrFieldBase8raw_dataEv(ptr noundef nonnull align 8 dereferenceable(24) %0) #7 comdat align 2 {
  %2 = alloca ptr, align 8
  store ptr %0, ptr %2, align 8, !tbaa !561
  %3 = load ptr, ptr %2, align 8
  %4 = getelementptr inbounds nuw %"class.google::protobuf::internal::RepeatedPtrFieldBase", ptr %3, i32 0, i32 3
  %5 = load ptr, ptr %4, align 8, !tbaa !563
  %6 = icmp ne ptr %5, null
  br i1 %6, label %7, label %12

7:                                                ; preds = %1
  %8 = getelementptr inbounds nuw %"class.google::protobuf::internal::RepeatedPtrFieldBase", ptr %3, i32 0, i32 3
  %9 = load ptr, ptr %8, align 8, !tbaa !563
  %10 = getelementptr inbounds nuw %"struct.google::protobuf::internal::RepeatedPtrFieldBase::Rep", ptr %9, i32 0, i32 1
  %11 = getelementptr inbounds [268435454 x ptr], ptr %10, i64 0, i64 0
  br label %13

12:                                               ; preds = %1
  br label %13

13:                                               ; preds = %12, %7
  %14 = phi ptr [ %11, %7 ], [ null, %12 ]
  ret ptr %14
}

; Function Attrs: inlinehint mustprogress nounwind uwtable
define linkonce_odr hidden noundef i32 @_ZNK6google8protobuf16RepeatedPtrFieldINS0_19UninterpretedOptionEE4sizeEv(ptr noundef nonnull align 8 dereferenceable(24) %0) #7 comdat align 2 {
  %2 = alloca ptr, align 8
  store ptr %0, ptr %2, align 8, !tbaa !276
  %3 = load ptr, ptr %2, align 8
  %4 = call noundef i32 @_ZNK6google8protobuf8internal20RepeatedPtrFieldBase4sizeEv(ptr noundef nonnull align 8 dereferenceable(24) %3)
  ret i32 %4
}

; Function Attrs: mustprogress nounwind uwtable
define linkonce_odr hidden noundef nonnull align 8 dereferenceable(8) ptr @_ZN6google8protobuf8internal19RepeatedPtrIteratorIKNS0_19UninterpretedOptionEEppEv(ptr noundef nonnull align 8 dereferenceable(8) %0) #5 comdat align 2 {
  %2 = alloca ptr, align 8
  store ptr %0, ptr %2, align 8, !tbaa !289
  %3 = load ptr, ptr %2, align 8
  %4 = getelementptr inbounds nuw %"class.google::protobuf::internal::RepeatedPtrIterator.52", ptr %3, i32 0, i32 0
  %5 = load ptr, ptr %4, align 8, !tbaa !291
  %6 = getelementptr inbounds nuw ptr, ptr %5, i32 1
  store ptr %6, ptr %4, align 8, !tbaa !291
  ret ptr %3
}

; Function Attrs: inlinehint mustprogress uwtable
define linkonce_odr hidden noundef i64 @_ZN6google8protobuf8internal14WireFormatLite11MessageSizeINS0_19UninterpretedOptionEEEmRKT_(ptr noundef nonnull align 8 dereferenceable(96) %0) #6 comdat align 2 {
  %2 = alloca ptr, align 8
  store ptr %0, ptr %2, align 8, !tbaa !287
  %3 = load ptr, ptr %2, align 8, !tbaa !287
  %4 = call noundef i64 @_ZNK6google8protobuf19UninterpretedOption12ByteSizeLongEv(ptr noundef nonnull align 8 dereferenceable(96) %3)
  %5 = call noundef i64 @_ZN6google8protobuf8internal14WireFormatLite19LengthDelimitedSizeEm(i64 noundef %4)
  ret i64 %5
}

; Function Attrs: mustprogress nounwind uwtable
define linkonce_odr hidden noundef nonnull align 8 dereferenceable(96) ptr @_ZNK6google8protobuf8internal19RepeatedPtrIteratorIKNS0_19UninterpretedOptionEEdeEv(ptr noundef nonnull align 8 dereferenceable(8) %0) #5 comdat align 2 {
  %2 = alloca ptr, align 8
  store ptr %0, ptr %2, align 8, !tbaa !289
  %3 = load ptr, ptr %2, align 8
  %4 = getelementptr inbounds nuw %"class.google::protobuf::internal::RepeatedPtrIterator.52", ptr %3, i32 0, i32 0
  %5 = load ptr, ptr %4, align 8, !tbaa !291
  %6 = load ptr, ptr %5, align 8, !tbaa !32
  ret ptr %6
}

; Function Attrs: mustprogress nounwind uwtable
define linkonce_odr hidden noundef zeroext i1 @_ZNK6google8protobuf8internal19RepeatedPtrIteratorIKNS0_19UninterpretedOptionEEneERKS5_(ptr noundef nonnull align 8 dereferenceable(8) %0, ptr noundef nonnull align 8 dereferenceable(8) %1) #5 comdat align 2 {
  %3 = alloca ptr, align 8
  %4 = alloca ptr, align 8
  store ptr %0, ptr %3, align 8, !tbaa !289
  store ptr %1, ptr %4, align 8, !tbaa !289
  %5 = load ptr, ptr %3, align 8
  %6 = getelementptr inbounds nuw %"class.google::protobuf::internal::RepeatedPtrIterator.52", ptr %5, i32 0, i32 0
  %7 = load ptr, ptr %6, align 8, !tbaa !291
  %8 = load ptr, ptr %4, align 8, !tbaa !289
  %9 = getelementptr inbounds nuw %"class.google::protobuf::internal::RepeatedPtrIterator.52", ptr %8, i32 0, i32 0
  %10 = load ptr, ptr %9, align 8, !tbaa !291
  %11 = icmp ne ptr %7, %10
  ret i1 %11
}

; Function Attrs: inlinehint mustprogress uwtable
define linkonce_odr hidden ptr @_ZNK6google8protobuf16RepeatedPtrFieldINS0_19UninterpretedOptionEE3endEv(ptr noundef nonnull align 8 dereferenceable(24) %0) #6 comdat align 2 {
  %2 = alloca %"class.google::protobuf::internal::RepeatedPtrIterator.52", align 8
  %3 = alloca ptr, align 8
  %4 = alloca %"class.google::protobuf::internal::RepeatedPtrIterator.92", align 8
  store ptr %0, ptr %3, align 8, !tbaa !276
  %5 = load ptr, ptr %3, align 8
  call void @llvm.lifetime.start.p0(i64 8, ptr %4) #3
  %6 = call noundef ptr @_ZNK6google8protobuf8internal20RepeatedPtrFieldBase8raw_dataEv(ptr noundef nonnull align 8 dereferenceable(24) %5)
  %7 = call noundef i32 @_ZNK6google8protobuf16RepeatedPtrFieldINS0_19UninterpretedOptionEE4sizeEv(ptr noundef nonnull align 8 dereferenceable(24) %5)
  %8 = sext i32 %7 to i64
  %9 = getelementptr inbounds ptr, ptr %6, i64 %8
  call void @_ZN6google8protobuf8internal19RepeatedPtrIteratorINS0_19UninterpretedOptionEEC2EPKPv(ptr noundef nonnull align 8 dereferenceable(8) %4, ptr noundef %9)
  call void @_ZN6google8protobuf8internal19RepeatedPtrIteratorIKNS0_19UninterpretedOptionEEC2IS3_EERKNS2_IT_EE(ptr noundef nonnull align 8 dereferenceable(8) %2, ptr noundef nonnull align 8 dereferenceable(8) %4)
  call void @llvm.lifetime.end.p0(i64 8, ptr %4) #3
  %10 = getelementptr inbounds nuw %"class.google::protobuf::internal::RepeatedPtrIterator.52", ptr %2, i32 0, i32 0
  %11 = load ptr, ptr %10, align 8
  ret ptr %11
}

; Function Attrs: inlinehint mustprogress uwtable
define linkonce_odr hidden ptr @_ZNK6google8protobuf16RepeatedPtrFieldINS0_19UninterpretedOptionEE5beginEv(ptr noundef nonnull align 8 dereferenceable(24) %0) #6 comdat align 2 {
  %2 = alloca %"class.google::protobuf::internal::RepeatedPtrIterator.52", align 8
  %3 = alloca ptr, align 8
  %4 = alloca %"class.google::protobuf::internal::RepeatedPtrIterator.92", align 8
  store ptr %0, ptr %3, align 8, !tbaa !276
  %5 = load ptr, ptr %3, align 8
  call void @llvm.lifetime.start.p0(i64 8, ptr %4) #3
  %6 = call noundef ptr @_ZNK6google8protobuf8internal20RepeatedPtrFieldBase8raw_dataEv(ptr noundef nonnull align 8 dereferenceable(24) %5)
  call void @_ZN6google8protobuf8internal19RepeatedPtrIteratorINS0_19UninterpretedOptionEEC2EPKPv(ptr noundef nonnull align 8 dereferenceable(8) %4, ptr noundef %6)
  call void @_ZN6google8protobuf8internal19RepeatedPtrIteratorIKNS0_19UninterpretedOptionEEC2IS3_EERKNS2_IT_EE(ptr noundef nonnull align 8 dereferenceable(8) %2, ptr noundef nonnull align 8 dereferenceable(8) %4)
  call void @llvm.lifetime.end.p0(i64 8, ptr %4) #3
  %7 = getelementptr inbounds nuw %"class.google::protobuf::internal::RepeatedPtrIterator.52", ptr %2, i32 0, i32 0
  %8 = load ptr, ptr %7, align 8
  ret ptr %8
}

; Function Attrs: inlinehint mustprogress nounwind uwtable
define linkonce_odr hidden noundef i32 @_ZNK6google8protobuf12OneofOptions35_internal_uninterpreted_option_sizeEv(ptr noundef nonnull align 8 dereferenceable(72) %0) #7 comdat align 2 {
  %2 = alloca ptr, align 8
  store ptr %0, ptr %2, align 8, !tbaa !328
  %3 = load ptr, ptr %2, align 8
  %4 = getelementptr inbounds nuw %"class.google::protobuf::OneofOptions", ptr %3, i32 0, i32 2
  %5 = call noundef i32 @_ZNK6google8protobuf16RepeatedPtrFieldINS0_19UninterpretedOptionEE4sizeEv(ptr noundef nonnull align 8 dereferenceable(24) %4)
  ret i32 %5
}

; Function Attrs: mustprogress uwtable
define hidden noundef i64 @_ZNK6google8protobuf12OneofOptions12ByteSizeLongEv(ptr noundef nonnull align 8 dereferenceable(72) %0) unnamed_addr #4 align 2 {
  %2 = alloca ptr, align 8
  %3 = alloca i64, align 8
  %4 = alloca i32, align 4
  %5 = alloca ptr, align 8
  %6 = alloca %"class.google::protobuf::internal::RepeatedPtrIterator.52", align 8
  %7 = alloca %"class.google::protobuf::internal::RepeatedPtrIterator.52", align 8
  %8 = alloca ptr, align 8
  store ptr %0, ptr %2, align 8, !tbaa !328
  %9 = load ptr, ptr %2, align 8
  call void @llvm.lifetime.start.p0(i64 8, ptr %3) #3
  store i64 0, ptr %3, align 8, !tbaa !68
  %10 = getelementptr inbounds nuw %"class.google::protobuf::OneofOptions", ptr %9, i32 0, i32 1
  %11 = call noundef i64 @_ZNK6google8protobuf8internal12ExtensionSet8ByteSizeEv(ptr noundef nonnull align 8 dereferenceable(24) %10)
  %12 = load i64, ptr %3, align 8, !tbaa !68
  %13 = add i64 %12, %11
  store i64 %13, ptr %3, align 8, !tbaa !68
  call void @llvm.lifetime.start.p0(i64 4, ptr %4) #3
  store i32 0, ptr %4, align 4, !tbaa !8
  %14 = call noundef i32 @_ZNK6google8protobuf12OneofOptions35_internal_uninterpreted_option_sizeEv(ptr noundef nonnull align 8 dereferenceable(72) %9)
  %15 = sext i32 %14 to i64
  %16 = mul i64 2, %15
  %17 = load i64, ptr %3, align 8, !tbaa !68
  %18 = add i64 %17, %16
  store i64 %18, ptr %3, align 8, !tbaa !68
  call void @llvm.lifetime.start.p0(i64 8, ptr %5) #3
  %19 = getelementptr inbounds nuw %"class.google::protobuf::OneofOptions", ptr %9, i32 0, i32 2
  store ptr %19, ptr %5, align 8, !tbaa !276
  call void @llvm.lifetime.start.p0(i64 8, ptr %6) #3
  %20 = load ptr, ptr %5, align 8, !tbaa !276
  %21 = call ptr @_ZNK6google8protobuf16RepeatedPtrFieldINS0_19UninterpretedOptionEE5beginEv(ptr noundef nonnull align 8 dereferenceable(24) %20)
  %22 = getelementptr inbounds nuw %"class.google::protobuf::internal::RepeatedPtrIterator.52", ptr %6, i32 0, i32 0
  store ptr %21, ptr %22, align 8
  call void @llvm.lifetime.start.p0(i64 8, ptr %7) #3
  %23 = load ptr, ptr %5, align 8, !tbaa !276
  %24 = call ptr @_ZNK6google8protobuf16RepeatedPtrFieldINS0_19UninterpretedOptionEE3endEv(ptr noundef nonnull align 8 dereferenceable(24) %23)
  %25 = getelementptr inbounds nuw %"class.google::protobuf::internal::RepeatedPtrIterator.52", ptr %7, i32 0, i32 0
  store ptr %24, ptr %25, align 8
  br label %26

26:                                               ; preds = %35, %1
  %27 = call noundef zeroext i1 @_ZNK6google8protobuf8internal19RepeatedPtrIteratorIKNS0_19UninterpretedOptionEEneERKS5_(ptr noundef nonnull align 8 dereferenceable(8) %6, ptr noundef nonnull align 8 dereferenceable(8) %7)
  br i1 %27, label %29, label %28

28:                                               ; preds = %26
  call void @llvm.lifetime.end.p0(i64 8, ptr %7) #3
  call void @llvm.lifetime.end.p0(i64 8, ptr %6) #3
  call void @llvm.lifetime.end.p0(i64 8, ptr %5) #3
  br label %37

29:                                               ; preds = %26
  call void @llvm.lifetime.start.p0(i64 8, ptr %8) #3
  %30 = call noundef nonnull align 8 dereferenceable(96) ptr @_ZNK6google8protobuf8internal19RepeatedPtrIteratorIKNS0_19UninterpretedOptionEEdeEv(ptr noundef nonnull align 8 dereferenceable(8) %6)
  store ptr %30, ptr %8, align 8, !tbaa !287
  %31 = load ptr, ptr %8, align 8, !tbaa !287
  %32 = call noundef i64 @_ZN6google8protobuf8internal14WireFormatLite11MessageSizeINS0_19UninterpretedOptionEEEmRKT_(ptr noundef nonnull align 8 dereferenceable(96) %31)
  %33 = load i64, ptr %3, align 8, !tbaa !68
  %34 = add i64 %33, %32
  store i64 %34, ptr %3, align 8, !tbaa !68
  call void @llvm.lifetime.end.p0(i64 8, ptr %8) #3
  br label %35

35:                                               ; preds = %29
  %36 = call noundef nonnull align 8 dereferenceable(8) ptr @_ZN6google8protobuf8internal19RepeatedPtrIteratorIKNS0_19UninterpretedOptionEEppEv(ptr noundef nonnull align 8 dereferenceable(8) %6)
  br label %26

37:                                               ; preds = %28
  %38 = load i64, ptr %3, align 8, !tbaa !68
  %39 = getelementptr inbounds nuw %"class.google::protobuf::OneofOptions", ptr %9, i32 0, i32 3
  %40 = call noundef i64 @_ZNK6google8protobuf7Message29MaybeComputeUnknownFieldsSizeEmPNS0_8internal10CachedSizeE(ptr noundef nonnull align 8 dereferenceable(16) %9, i64 noundef %38, ptr noundef %39)
  call void @llvm.lifetime.end.p0(i64 4, ptr %4) #3
  call void @llvm.lifetime.end.p0(i64 8, ptr %3) #3
  ret i64 %40
}