; Function Attrs: mustprogress uwtable
define hidden noundef i64 @_ZNK6google8protobuf12OneofOptions12ByteSizeLongEv(ptr noundef nonnull align 8 dereferenceable(72) %0) unnamed_addr #3 align 2 {
  %2 = getelementptr inbounds nuw i8, ptr %0, i64 16
  %3 = tail call noundef i64 @_ZNK6google8protobuf8internal12ExtensionSet8ByteSizeEv(ptr noundef nonnull align 8 dereferenceable(24) %2)
  %4 = getelementptr inbounds nuw i8, ptr %0, i64 48
  %5 = load i32, ptr %4, align 8, !tbaa !22
  %6 = sext i32 %5 to i64
  %7 = shl nsw i64 %6, 1
  %8 = add i64 %7, %3
  %9 = getelementptr inbounds nuw i8, ptr %0, i64 56
  %10 = load ptr, ptr %9, align 8, !tbaa !18
  %.not.i.i = icmp eq ptr %10, null
  %11 = getelementptr inbounds nuw i8, ptr %10, i64 8
  %spec.select.i.i = select i1 %.not.i.i, ptr null, ptr %11
  %12 = getelementptr inbounds ptr, ptr %spec.select.i.i, i64 %6
  %.not12 = icmp eq i32 %5, 0
  br i1 %.not12, label %._crit_edge, label %.lr.ph

._crit_edge:                                      ; preds = %.lr.ph, %1
  %.0.lcssa = phi i64 [ %8, %1 ], [ %26, %.lr.ph ]
  %13 = getelementptr inbounds nuw i8, ptr %0, i64 64
  %14 = tail call noundef i64 @_ZNK6google8protobuf7Message29MaybeComputeUnknownFieldsSizeEmPNS0_8internal10CachedSizeE(ptr noundef nonnull align 8 dereferenceable(16) %0, i64 noundef %.0.lcssa, ptr noundef nonnull %13)
  ret i64 %14

.lr.ph:                                           ; preds = %1, %.lr.ph
  %.014 = phi i64 [ %26, %.lr.ph ], [ %8, %1 ]
  %.sroa.09.013 = phi ptr [ %27, %.lr.ph ], [ %spec.select.i.i, %1 ]
  %15 = load ptr, ptr %.sroa.09.013, align 8, !tbaa !27
  %16 = tail call noundef i64 @_ZNK6google8protobuf19UninterpretedOption12ByteSizeLongEv(ptr noundef nonnull align 8 dereferenceable(96) %15)
  %17 = trunc i64 %16 to i32
  %18 = or i32 %17, 1
  %19 = tail call range(i32 0, 33) i32 @llvm.ctlz.i32(i32 %18, i1 true)
  %20 = xor i32 %19, 31
  %21 = mul nuw nsw i32 %20, 9
  %22 = add nuw nsw i32 %21, 73
  %23 = lshr i32 %22, 6
  %24 = zext nneg i32 %23 to i64
  %25 = add i64 %16, %.014
  %26 = add i64 %25, %24
  %27 = getelementptr inbounds nuw i8, ptr %.sroa.09.013, i64 8
  %.not = icmp eq ptr %27, %12
  br i1 %.not, label %._crit_edge, label %.lr.ph
}